target datalayout = "e-m:e-p270:32:32-p271:32:32-p272:64:64-i64:64-i128:128-f80:128-n8:16:32:64-S128"
target triple = "x86_64-pc-linux-gnu"

%struct.lex_context = type { i16, [2 x i8] }
%struct.parser_params = type { ptr, ptr, %struct.anon.12, i64, i64, i32, i32, i32, i32, i32, ptr, ptr, ptr, ptr, i32, i32, ptr, i64, ptr, ptr, ptr, ptr, i64, i64, %struct.anon.13, ptr, i32, ptr, i32, i64, %struct.lex_context, ptr, ptr, ptr, i16, i64, i64, i64, i64, i64, i64 }
%struct.anon.12 = type { ptr, ptr, ptr, %struct.parser_string_buffer, ptr, ptr, ptr, ptr, ptr, ptr, i32, i32, i32, i32 }
%struct.parser_string_buffer = type { ptr, ptr }
%struct.anon.13 = type { ptr, i32, i32, i32, i32 }

; Function Attrs: nounwind sspstrong uwtable
define internal void @parser_set_token_info(ptr noundef %0, ptr noundef %1, ptr noundef %2) #0 {
  %4 = alloca ptr, align 8
  %5 = alloca ptr, align 8
  %6 = alloca ptr, align 8
  %7 = alloca i32, align 4
  store ptr %0, ptr %4, align 8, !tbaa !6
  store ptr %1, ptr %5, align 8, !tbaa !24
  store ptr %2, ptr %6, align 8, !tbaa !24
  call void @llvm.lifetime.start.p0(i64 4, ptr %7) #25
  %8 = load ptr, ptr %4, align 8, !tbaa !6
  %9 = load ptr, ptr %5, align 8, !tbaa !24
  %10 = load ptr, ptr %6, align 8, !tbaa !24
  %11 = call i32 @parser_get_bool(ptr noundef %8, ptr noundef %9, ptr noundef %10)
  store i32 %11, ptr %7, align 4, !tbaa !14
  %12 = load i32, ptr %7, align 4, !tbaa !14
  %13 = icmp sge i32 %12, 0
  br i1 %13, label %14, label %24

14:                                               ; preds = %3
  %15 = load i32, ptr %7, align 4, !tbaa !14
  %16 = load ptr, ptr %4, align 8, !tbaa !6
  %17 = getelementptr inbounds nuw %struct.parser_params, ptr %16, i32 0, i32 34
  %18 = trunc i32 %15 to i16
  %19 = load i16, ptr %17, align 8
  %20 = and i16 %18, 1
  %21 = shl i16 %20, 8
  %22 = and i16 %19, -257
  %23 = or i16 %22, %21
  store i16 %23, ptr %17, align 8
  br label %24

24:                                               ; preds = %14, %3
  call void @llvm.lifetime.end.p0(i64 4, ptr %7) #25
  ret void
}